ARM GAS  C:\Users\harri\AppData\Local\Temp\cc9AGNpU.s 			page 1


   1              		.syntax unified
   2              		.cpu cortex-m3
   3              		.fpu softvfp
   4              		.eabi_attribute 20, 1
   5              		.eabi_attribute 21, 1
   6              		.eabi_attribute 23, 3
   7              		.eabi_attribute 24, 1
   8              		.eabi_attribute 25, 1
   9              		.eabi_attribute 26, 1
  10              		.eabi_attribute 30, 1
  11              		.eabi_attribute 34, 1
  12              		.eabi_attribute 18, 4
  13              		.thumb
  14              		.syntax unified
  15              		.file	"main.c"
  16              		.text
  17              	.Ltext0:
  18              		.cfi_sections	.debug_frame
  19              		.global	__aeabi_fmul
  20              		.global	__aeabi_fadd
  21              		.global	__aeabi_f2iz
  22              		.section	.text.BaseMotor_Theta,"ax",%progbits
  23              		.align	2
  24              		.global	BaseMotor_Theta
  25              		.thumb
  26              		.thumb_func
  27              		.type	BaseMotor_Theta, %function
  28              	BaseMotor_Theta:
  29              	.LFB64:
  30              		.file 1 "main.c"
   1:main.c        **** #include "project.h"
   2:main.c        **** #include "math.h"
   3:main.c        **** #include <stdio.h>
   4:main.c        **** #include <string.h>
   5:main.c        **** 
   6:main.c        **** int previous_compare = 0;
   7:main.c        **** int flag = 0;
   8:main.c        **** 
   9:main.c        **** // Link Lengths
  10:main.c        **** float a2 = 6.2;
  11:main.c        **** float a4 = 3.5;
  12:main.c        **** 
  13:main.c        **** typedef enum {
  14:main.c        ****     pwm_1 = 1,
  15:main.c        ****     pwm_2 = 2,
  16:main.c        **** } PWM_type;
  17:main.c        **** 
  18:main.c        **** int BaseMotor_Theta(float Angle) {
  31              		.loc 1 18 0
  32              		.cfi_startproc
  33              		@ args = 0, pretend = 0, frame = 0
  34              		@ frame_needed = 0, uses_anonymous_args = 0
  35              	.LVL0:
  36 0000 08B5     		push	{r3, lr}
  37              		.cfi_def_cfa_offset 8
  38              		.cfi_offset 3, -8
  39              		.cfi_offset 14, -4
ARM GAS  C:\Users\harri\AppData\Local\Temp\cc9AGNpU.s 			page 2


  40              	.LVL1:
  19:main.c        ****     int compare;
  20:main.c        ****     int min_comp = 1400; 
  21:main.c        ****     int max_comp = 7200; 
  22:main.c        ****     int min_angle = 0; 
  23:main.c        ****     int max_angle = 180;
  24:main.c        ****     
  25:main.c        ****     compare = ((max_comp - min_comp) / (max_angle - min_angle)) * (Angle - min_angle) + min_comp;
  41              		.loc 1 25 0
  42 0002 4FF08441 		mov	r1, #1107296256
  43 0006 FFF7FEFF 		bl	__aeabi_fmul
  44              	.LVL2:
  45 000a 0349     		ldr	r1, .L3
  46 000c FFF7FEFF 		bl	__aeabi_fadd
  47              	.LVL3:
  48 0010 FFF7FEFF 		bl	__aeabi_f2iz
  49              	.LVL4:
  26:main.c        ****     return compare;
  27:main.c        **** }
  50              		.loc 1 27 0
  51 0014 08BD     		pop	{r3, pc}
  52              	.L4:
  53 0016 00BF     		.align	2
  54              	.L3:
  55 0018 0000AF44 		.word	1152319488
  56              		.cfi_endproc
  57              	.LFE64:
  58              		.size	BaseMotor_Theta, .-BaseMotor_Theta
  59              		.section	.text.TopMotor_Theta,"ax",%progbits
  60              		.align	2
  61              		.global	TopMotor_Theta
  62              		.thumb
  63              		.thumb_func
  64              		.type	TopMotor_Theta, %function
  65              	TopMotor_Theta:
  66              	.LFB65:
  28:main.c        **** 
  29:main.c        **** int TopMotor_Theta(float Angle) {
  67              		.loc 1 29 0
  68              		.cfi_startproc
  69              		@ args = 0, pretend = 0, frame = 0
  70              		@ frame_needed = 0, uses_anonymous_args = 0
  71              	.LVL5:
  72 0000 08B5     		push	{r3, lr}
  73              		.cfi_def_cfa_offset 8
  74              		.cfi_offset 3, -8
  75              		.cfi_offset 14, -4
  76              	.LVL6:
  30:main.c        ****     int compare;
  31:main.c        ****     int min_comp = 1400; 
  32:main.c        ****     int max_comp = 7100; 
  33:main.c        ****     int min_angle = -90; 
  34:main.c        ****     int max_angle = 90;
  35:main.c        ****     
  36:main.c        ****     compare = ((max_comp - min_comp) / (max_angle - min_angle)) * (Angle - min_angle) + min_comp;
  77              		.loc 1 36 0
  78 0002 0649     		ldr	r1, .L7
ARM GAS  C:\Users\harri\AppData\Local\Temp\cc9AGNpU.s 			page 3


  79 0004 FFF7FEFF 		bl	__aeabi_fadd
  80              	.LVL7:
  81 0008 0549     		ldr	r1, .L7+4
  82 000a FFF7FEFF 		bl	__aeabi_fmul
  83              	.LVL8:
  84 000e 0549     		ldr	r1, .L7+8
  85 0010 FFF7FEFF 		bl	__aeabi_fadd
  86              	.LVL9:
  87 0014 FFF7FEFF 		bl	__aeabi_f2iz
  88              	.LVL10:
  37:main.c        ****     return compare;
  38:main.c        **** }
  89              		.loc 1 38 0
  90 0018 08BD     		pop	{r3, pc}
  91              	.L8:
  92 001a 00BF     		.align	2
  93              	.L7:
  94 001c 0000B442 		.word	1119092736
  95 0020 0000F841 		.word	1106771968
  96 0024 0000AF44 		.word	1152319488
  97              		.cfi_endproc
  98              	.LFE65:
  99              		.size	TopMotor_Theta, .-TopMotor_Theta
 100              		.section	.text.MoveMotor,"ax",%progbits
 101              		.align	2
 102              		.global	MoveMotor
 103              		.thumb
 104              		.thumb_func
 105              		.type	MoveMotor, %function
 106              	MoveMotor:
 107              	.LFB66:
  39:main.c        **** 
  40:main.c        **** void MoveMotor(int compare, PWM_type pwm) {
 108              		.loc 1 40 0
 109              		.cfi_startproc
 110              		@ args = 0, pretend = 0, frame = 0
 111              		@ frame_needed = 0, uses_anonymous_args = 0
 112              	.LVL11:
 113 0000 70B5     		push	{r4, r5, r6, lr}
 114              		.cfi_def_cfa_offset 16
 115              		.cfi_offset 4, -16
 116              		.cfi_offset 5, -12
 117              		.cfi_offset 6, -8
 118              		.cfi_offset 14, -4
 119 0002 0546     		mov	r5, r0
 120 0004 0E46     		mov	r6, r1
  41:main.c        ****     if (compare - previous_compare > 0) {
 121              		.loc 1 41 0
 122 0006 174B     		ldr	r3, .L22
 123 0008 1C68     		ldr	r4, [r3]
 124 000a 031B     		subs	r3, r0, r4
 125 000c 002B     		cmp	r3, #0
 126 000e 0DDC     		bgt	.L10
 127 0010 0FE0     		b	.L20
 128              	.LVL12:
 129              	.L14:
 130              	.LBB2:
ARM GAS  C:\Users\harri\AppData\Local\Temp\cc9AGNpU.s 			page 4


  42:main.c        ****         for (int i = previous_compare; i <= compare; i += 20) {
  43:main.c        ****             if (pwm == pwm_1) {
 131              		.loc 1 43 0
 132 0012 012E     		cmp	r6, #1
 133 0014 03D1     		bne	.L12
  44:main.c        ****                 PWM_WriteCompare1(i);
 134              		.loc 1 44 0
 135 0016 A0B2     		uxth	r0, r4
 136 0018 FFF7FEFF 		bl	PWM_WriteCompare1
 137              	.LVL13:
 138 001c 02E0     		b	.L13
 139              	.L12:
  45:main.c        ****             } else {
  46:main.c        ****                 PWM_WriteCompare2(i);
 140              		.loc 1 46 0
 141 001e A0B2     		uxth	r0, r4
 142 0020 FFF7FEFF 		bl	PWM_WriteCompare2
 143              	.LVL14:
 144              	.L13:
  47:main.c        ****             }
  48:main.c        ****             CyDelay(4);
 145              		.loc 1 48 0 discriminator 2
 146 0024 0420     		movs	r0, #4
 147 0026 FFF7FEFF 		bl	CyDelay
 148              	.LVL15:
  42:main.c        ****             if (pwm == pwm_1) {
 149              		.loc 1 42 0 discriminator 2
 150 002a 1434     		adds	r4, r4, #20
 151              	.LVL16:
 152              	.L10:
  42:main.c        ****             if (pwm == pwm_1) {
 153              		.loc 1 42 0 is_stmt 0 discriminator 1
 154 002c AC42     		cmp	r4, r5
 155 002e F0DD     		ble	.L14
 156 0030 11E0     		b	.L15
 157              	.LVL17:
 158              	.L20:
 159              	.LBE2:
  49:main.c        ****         }
  50:main.c        ****     } else if (compare - previous_compare < 0) {
 160              		.loc 1 50 0 is_stmt 1
 161 0032 002B     		cmp	r3, #0
 162 0034 0FDA     		bge	.L15
 163 0036 0CE0     		b	.L16
 164              	.LVL18:
 165              	.L19:
 166              	.LBB3:
  51:main.c        ****         for (int i = previous_compare; i >= compare; i -= 20) {
  52:main.c        ****             if (pwm == pwm_1) {
 167              		.loc 1 52 0
 168 0038 012E     		cmp	r6, #1
 169 003a 03D1     		bne	.L17
  53:main.c        ****                 PWM_WriteCompare1(i);
 170              		.loc 1 53 0
 171 003c A0B2     		uxth	r0, r4
 172 003e FFF7FEFF 		bl	PWM_WriteCompare1
 173              	.LVL19:
ARM GAS  C:\Users\harri\AppData\Local\Temp\cc9AGNpU.s 			page 5


 174 0042 02E0     		b	.L18
 175              	.L17:
  54:main.c        ****             } else {
  55:main.c        ****                 PWM_WriteCompare2(i);
 176              		.loc 1 55 0
 177 0044 A0B2     		uxth	r0, r4
 178 0046 FFF7FEFF 		bl	PWM_WriteCompare2
 179              	.LVL20:
 180              	.L18:
  56:main.c        ****             }
  57:main.c        ****             CyDelay(4);  
 181              		.loc 1 57 0 discriminator 2
 182 004a 0420     		movs	r0, #4
 183 004c FFF7FEFF 		bl	CyDelay
 184              	.LVL21:
  51:main.c        ****             if (pwm == pwm_1) {
 185              		.loc 1 51 0 discriminator 2
 186 0050 143C     		subs	r4, r4, #20
 187              	.LVL22:
 188              	.L16:
  51:main.c        ****             if (pwm == pwm_1) {
 189              		.loc 1 51 0 is_stmt 0 discriminator 1
 190 0052 AC42     		cmp	r4, r5
 191 0054 F0DA     		bge	.L19
 192              	.LVL23:
 193              	.L15:
 194              	.LBE3:
  58:main.c        ****         }
  59:main.c        ****     }
  60:main.c        ****     previous_compare = compare;
 195              		.loc 1 60 0 is_stmt 1
 196 0056 034B     		ldr	r3, .L22
 197 0058 1D60     		str	r5, [r3]
  61:main.c        ****     CyDelay(1000);
 198              		.loc 1 61 0
 199 005a 4FF47A70 		mov	r0, #1000
 200 005e FFF7FEFF 		bl	CyDelay
 201              	.LVL24:
 202 0062 70BD     		pop	{r4, r5, r6, pc}
 203              	.LVL25:
 204              	.L23:
 205              		.align	2
 206              	.L22:
 207 0064 00000000 		.word	.LANCHOR0
 208              		.cfi_endproc
 209              	.LFE66:
 210              		.size	MoveMotor, .-MoveMotor
 211              		.global	__aeabi_i2d
 212              		.global	__aeabi_d2f
 213              		.global	__aeabi_ddiv
 214              		.global	__aeabi_f2d
 215              		.section	.text.main,"ax",%progbits
 216              		.align	2
 217              		.global	main
 218              		.thumb
 219              		.thumb_func
 220              		.type	main, %function
ARM GAS  C:\Users\harri\AppData\Local\Temp\cc9AGNpU.s 			page 6


 221              	main:
 222              	.LFB67:
  62:main.c        **** }
  63:main.c        **** 
  64:main.c        **** int main(void) {
 223              		.loc 1 64 0
 224              		.cfi_startproc
 225              		@ args = 0, pretend = 0, frame = 8
 226              		@ frame_needed = 0, uses_anonymous_args = 0
 227 0000 30B5     		push	{r4, r5, lr}
 228              		.cfi_def_cfa_offset 12
 229              		.cfi_offset 4, -12
 230              		.cfi_offset 5, -8
 231              		.cfi_offset 14, -4
 232 0002 83B0     		sub	sp, sp, #12
 233              		.cfi_def_cfa_offset 24
  65:main.c        ****     PWM_Start();
 234              		.loc 1 65 0
 235 0004 FFF7FEFF 		bl	PWM_Start
 236              	.LVL26:
  66:main.c        ****     CyGlobalIntEnable;
 237              		.loc 1 66 0
 238              		.syntax unified
 239              	@ 66 "main.c" 1
 240 0008 62B6     		CPSIE   i
 241              	@ 0 "" 2
  67:main.c        ****     uint8_t ReceiveD1 = UART_1_GetChar();
 242              		.loc 1 67 0
 243              		.thumb
 244              		.syntax unified
 245 000a FFF7FEFF 		bl	UART_1_GetChar
 246              	.LVL27:
 247 000e 0446     		mov	r4, r0
 248              	.LVL28:
  68:main.c        ****             while (ReceiveD1 == 0)
 249              		.loc 1 68 0
 250 0010 03E0     		b	.L25
 251              	.L27:
  69:main.c        ****             {
  70:main.c        ****                 ReceiveD1 = UART_1_GetChar();
 252              		.loc 1 70 0
 253 0012 FFF7FEFF 		bl	UART_1_GetChar
 254              	.LVL29:
  71:main.c        ****                 if(ReceiveD1 != 0)
 255              		.loc 1 71 0
 256 0016 0446     		mov	r4, r0
 257 0018 08B9     		cbnz	r0, .L26
 258              	.LVL30:
 259              	.L25:
  68:main.c        ****             while (ReceiveD1 == 0)
 260              		.loc 1 68 0
 261 001a 002C     		cmp	r4, #0
 262 001c F9D0     		beq	.L27
 263              	.LVL31:
 264              	.L26:
  72:main.c        ****                     break;
  73:main.c        ****             }
ARM GAS  C:\Users\harri\AppData\Local\Temp\cc9AGNpU.s 			page 7


  74:main.c        ****             CyDelay(1000);
 265              		.loc 1 74 0
 266 001e 4FF47A70 		mov	r0, #1000
 267 0022 FFF7FEFF 		bl	CyDelay
 268              	.LVL32:
  75:main.c        ****             int ReceiveD2;
  76:main.c        ****             LCD_Char_1_ClearDisplay();
 269              		.loc 1 76 0
 270 0026 0120     		movs	r0, #1
 271 0028 FFF7FEFF 		bl	LCD_Char_1_WriteControl
 272              	.LVL33:
  77:main.c        ****             
  78:main.c        ****             while (ReceiveD2 == 0)
 273              		.loc 1 78 0
 274 002c 03E0     		b	.L28
 275              	.LVL34:
 276              	.L30:
  79:main.c        ****             {
  80:main.c        ****                 ReceiveD2 = UART_1_GetChar();
 277              		.loc 1 80 0
 278 002e FFF7FEFF 		bl	UART_1_GetChar
 279              	.LVL35:
 280 0032 0546     		mov	r5, r0
 281              	.LVL36:
  81:main.c        ****                 if (ReceiveD2 != 0)
 282              		.loc 1 81 0
 283 0034 08B9     		cbnz	r0, .L29
 284              	.LVL37:
 285              	.L28:
  78:main.c        ****             {
 286              		.loc 1 78 0
 287 0036 002D     		cmp	r5, #0
 288 0038 F9D0     		beq	.L30
 289              	.L29:
  82:main.c        ****                     break;
  83:main.c        ****             }
  84:main.c        ****     
  85:main.c        ****             CyDelay(2000);
 290              		.loc 1 85 0
 291 003a 4FF4FA60 		mov	r0, #2000
 292 003e FFF7FEFF 		bl	CyDelay
 293              	.LVL38:
  86:main.c        ****             float ReceiveD1D = ReceiveD1 * 1.0;
 294              		.loc 1 86 0
 295 0042 2046     		mov	r0, r4
 296 0044 FFF7FEFF 		bl	__aeabi_i2d
 297              	.LVL39:
 298 0048 FFF7FEFF 		bl	__aeabi_d2f
 299              	.LVL40:
 300 004c 0446     		mov	r4, r0
 301              	.LVL41:
  87:main.c        ****             float DecReceived = ReceiveD2 / 100.00;
 302              		.loc 1 87 0
 303 004e 2846     		mov	r0, r5
 304              	.LVL42:
 305 0050 FFF7FEFF 		bl	__aeabi_i2d
 306              	.LVL43:
ARM GAS  C:\Users\harri\AppData\Local\Temp\cc9AGNpU.s 			page 8


 307 0054 0022     		movs	r2, #0
 308 0056 3E4B     		ldr	r3, .L38
 309 0058 FFF7FEFF 		bl	__aeabi_ddiv
 310              	.LVL44:
 311 005c FFF7FEFF 		bl	__aeabi_d2f
 312              	.LVL45:
  88:main.c        ****             float Received = ReceiveD1D + DecReceived;
 313              		.loc 1 88 0
 314 0060 0146     		mov	r1, r0
 315 0062 2046     		mov	r0, r4
 316              	.LVL46:
 317 0064 FFF7FEFF 		bl	__aeabi_fadd
 318              	.LVL47:
  89:main.c        ****         
  90:main.c        ****             char8 str[8];
  91:main.c        ****             sprintf(str, "%.2f", Received);
 319              		.loc 1 91 0
 320 0068 FFF7FEFF 		bl	__aeabi_f2d
 321              	.LVL48:
 322 006c 0246     		mov	r2, r0
 323 006e 0B46     		mov	r3, r1
 324 0070 3849     		ldr	r1, .L38+4
 325 0072 6846     		mov	r0, sp
 326 0074 FFF7FEFF 		bl	sprintf
 327              	.LVL49:
  92:main.c        ****         
  93:main.c        ****             LCD_Char_1_ClearDisplay();
 328              		.loc 1 93 0
 329 0078 0120     		movs	r0, #1
 330 007a FFF7FEFF 		bl	LCD_Char_1_WriteControl
 331              	.LVL50:
  94:main.c        ****             CyDelay(20);
 332              		.loc 1 94 0
 333 007e 1420     		movs	r0, #20
 334 0080 FFF7FEFF 		bl	CyDelay
 335              	.LVL51:
  95:main.c        ****             LCD_Char_1_Position(0,0);
 336              		.loc 1 95 0
 337 0084 0021     		movs	r1, #0
 338 0086 0846     		mov	r0, r1
 339 0088 FFF7FEFF 		bl	LCD_Char_1_Position
 340              	.LVL52:
  96:main.c        ****             LCD_Char_1_PrintString("Recieved Theta1");
 341              		.loc 1 96 0
 342 008c 3248     		ldr	r0, .L38+8
 343 008e FFF7FEFF 		bl	LCD_Char_1_PrintString
 344              	.LVL53:
  97:main.c        ****             
  98:main.c        ****             float Theta1 = Received;
  99:main.c        ****             
 100:main.c        ****             LCD_Char_1_ClearDisplay();
 345              		.loc 1 100 0
 346 0092 0120     		movs	r0, #1
 347 0094 FFF7FEFF 		bl	LCD_Char_1_WriteControl
 348              	.LVL54:
 101:main.c        ****             LCD_Char_1_Position(0, 0);
 349              		.loc 1 101 0
ARM GAS  C:\Users\harri\AppData\Local\Temp\cc9AGNpU.s 			page 9


 350 0098 0021     		movs	r1, #0
 351 009a 0846     		mov	r0, r1
 352 009c FFF7FEFF 		bl	LCD_Char_1_Position
 353              	.LVL55:
 102:main.c        ****             LCD_Char_1_PrintString("Waiting");
 354              		.loc 1 102 0
 355 00a0 2E48     		ldr	r0, .L38+12
 356 00a2 FFF7FEFF 		bl	LCD_Char_1_PrintString
 357              	.LVL56:
 103:main.c        ****             int ReceiveD12;
 104:main.c        ****             ReceiveD12 = UART_1_GetChar();
 358              		.loc 1 104 0
 359 00a6 FFF7FEFF 		bl	UART_1_GetChar
 360              	.LVL57:
 361 00aa 0546     		mov	r5, r0
 362              	.LVL58:
 105:main.c        ****             while (ReceiveD12 == 0)
 363              		.loc 1 105 0
 364 00ac 03E0     		b	.L31
 365              	.LVL59:
 366              	.L33:
 106:main.c        ****             {
 107:main.c        ****                 ReceiveD12 = UART_1_GetChar();
 367              		.loc 1 107 0
 368 00ae FFF7FEFF 		bl	UART_1_GetChar
 369              	.LVL60:
 370 00b2 0546     		mov	r5, r0
 371              	.LVL61:
 108:main.c        ****                 if(ReceiveD12 != 0)
 372              		.loc 1 108 0
 373 00b4 08B9     		cbnz	r0, .L32
 374              	.LVL62:
 375              	.L31:
 105:main.c        ****             while (ReceiveD12 == 0)
 376              		.loc 1 105 0
 377 00b6 002D     		cmp	r5, #0
 378 00b8 F9D0     		beq	.L33
 379              	.L32:
 109:main.c        ****                     break;
 110:main.c        ****             }
 111:main.c        ****             CyDelay(1000);
 380              		.loc 1 111 0
 381 00ba 4FF47A70 		mov	r0, #1000
 382 00be FFF7FEFF 		bl	CyDelay
 383              	.LVL63:
 112:main.c        ****             int ReceiveD22;
 113:main.c        ****             ReceiveD22 = UART_1_GetChar();
 384              		.loc 1 113 0
 385 00c2 FFF7FEFF 		bl	UART_1_GetChar
 386              	.LVL64:
 387 00c6 0446     		mov	r4, r0
 388              	.LVL65:
 114:main.c        ****             while (ReceiveD22 == 0)
 389              		.loc 1 114 0
 390 00c8 03E0     		b	.L34
 391              	.LVL66:
 392              	.L36:
ARM GAS  C:\Users\harri\AppData\Local\Temp\cc9AGNpU.s 			page 10


 115:main.c        ****             {
 116:main.c        ****                 ReceiveD22 = UART_1_GetChar();
 393              		.loc 1 116 0
 394 00ca FFF7FEFF 		bl	UART_1_GetChar
 395              	.LVL67:
 396 00ce 0446     		mov	r4, r0
 397              	.LVL68:
 117:main.c        ****                 if (ReceiveD22 != 0)
 398              		.loc 1 117 0
 399 00d0 08B9     		cbnz	r0, .L35
 400              	.LVL69:
 401              	.L34:
 114:main.c        ****             while (ReceiveD22 == 0)
 402              		.loc 1 114 0
 403 00d2 002C     		cmp	r4, #0
 404 00d4 F9D0     		beq	.L36
 405              	.L35:
 118:main.c        ****                     break;
 119:main.c        ****             }
 120:main.c        ****     
 121:main.c        ****             CyDelay(2000);
 406              		.loc 1 121 0
 407 00d6 4FF4FA60 		mov	r0, #2000
 408 00da FFF7FEFF 		bl	CyDelay
 409              	.LVL70:
 122:main.c        ****             float ReceiveD1D22 = ReceiveD12 * 1.0;
 410              		.loc 1 122 0
 411 00de 2846     		mov	r0, r5
 412 00e0 FFF7FEFF 		bl	__aeabi_i2d
 413              	.LVL71:
 414 00e4 FFF7FEFF 		bl	__aeabi_d2f
 415              	.LVL72:
 416 00e8 0546     		mov	r5, r0
 417              	.LVL73:
 123:main.c        ****             float DecReceived22 = ReceiveD22 / 100.00;
 418              		.loc 1 123 0
 419 00ea 2046     		mov	r0, r4
 420              	.LVL74:
 421 00ec FFF7FEFF 		bl	__aeabi_i2d
 422              	.LVL75:
 423 00f0 0022     		movs	r2, #0
 424 00f2 174B     		ldr	r3, .L38
 425 00f4 FFF7FEFF 		bl	__aeabi_ddiv
 426              	.LVL76:
 427 00f8 FFF7FEFF 		bl	__aeabi_d2f
 428              	.LVL77:
 124:main.c        ****             float Received2 = ReceiveD1D22 + DecReceived22;
 429              		.loc 1 124 0
 430 00fc 0146     		mov	r1, r0
 431 00fe 2846     		mov	r0, r5
 432              	.LVL78:
 433 0100 FFF7FEFF 		bl	__aeabi_fadd
 434              	.LVL79:
 125:main.c        ****         
 126:main.c        ****             sprintf(str, "%.2f", Received2);
 435              		.loc 1 126 0
 436 0104 FFF7FEFF 		bl	__aeabi_f2d
ARM GAS  C:\Users\harri\AppData\Local\Temp\cc9AGNpU.s 			page 11


 437              	.LVL80:
 438 0108 0246     		mov	r2, r0
 439 010a 0B46     		mov	r3, r1
 440 010c 1149     		ldr	r1, .L38+4
 441 010e 6846     		mov	r0, sp
 442 0110 FFF7FEFF 		bl	sprintf
 443              	.LVL81:
 127:main.c        ****         
 128:main.c        ****             LCD_Char_1_ClearDisplay();
 444              		.loc 1 128 0
 445 0114 0120     		movs	r0, #1
 446 0116 FFF7FEFF 		bl	LCD_Char_1_WriteControl
 447              	.LVL82:
 129:main.c        ****             CyDelay(20);
 448              		.loc 1 129 0
 449 011a 1420     		movs	r0, #20
 450 011c FFF7FEFF 		bl	CyDelay
 451              	.LVL83:
 130:main.c        ****             LCD_Char_1_Position(0,0);
 452              		.loc 1 130 0
 453 0120 0021     		movs	r1, #0
 454 0122 0846     		mov	r0, r1
 455 0124 FFF7FEFF 		bl	LCD_Char_1_Position
 456              	.LVL84:
 131:main.c        ****             LCD_Char_1_PrintString("Recieved Theta2");
 457              		.loc 1 131 0
 458 0128 0D48     		ldr	r0, .L38+16
 459 012a FFF7FEFF 		bl	LCD_Char_1_PrintString
 460              	.LVL85:
 132:main.c        ****        
 133:main.c        ****             
 134:main.c        ****             float Theta2 = Received2 - 100;
 135:main.c        ****             
 136:main.c        ****             MoveMotor(BaseMotor_Theta(0),pwm_1);
 461              		.loc 1 136 0
 462 012e 0024     		movs	r4, #0
 463              	.LVL86:
 464 0130 2046     		mov	r0, r4
 465 0132 FFF7FEFF 		bl	BaseMotor_Theta
 466              	.LVL87:
 467 0136 0121     		movs	r1, #1
 468 0138 FFF7FEFF 		bl	MoveMotor
 469              	.LVL88:
 137:main.c        ****             MoveMotor(TopMotor_Theta(0),pwm_2);
 470              		.loc 1 137 0
 471 013c 2046     		mov	r0, r4
 472 013e FFF7FEFF 		bl	TopMotor_Theta
 473              	.LVL89:
 474 0142 0221     		movs	r1, #2
 475 0144 FFF7FEFF 		bl	MoveMotor
 476              	.LVL90:
 138:main.c        **** }
 477              		.loc 1 138 0
 478 0148 0020     		movs	r0, #0
 479 014a 03B0     		add	sp, sp, #12
 480              		.cfi_def_cfa_offset 12
 481              		@ sp needed
ARM GAS  C:\Users\harri\AppData\Local\Temp\cc9AGNpU.s 			page 12


 482 014c 30BD     		pop	{r4, r5, pc}
 483              	.LVL91:
 484              	.L39:
 485 014e 00BF     		.align	2
 486              	.L38:
 487 0150 00005940 		.word	1079574528
 488 0154 00000000 		.word	.LC0
 489 0158 08000000 		.word	.LC1
 490 015c 18000000 		.word	.LC2
 491 0160 20000000 		.word	.LC3
 492              		.cfi_endproc
 493              	.LFE67:
 494              		.size	main, .-main
 495              		.global	a4
 496              		.global	a2
 497              		.global	flag
 498              		.global	previous_compare
 499              		.data
 500              		.align	2
 501              		.type	a4, %object
 502              		.size	a4, 4
 503              	a4:
 504 0000 00006040 		.word	1080033280
 505              		.type	a2, %object
 506              		.size	a2, 4
 507              	a2:
 508 0004 6666C640 		.word	1086744166
 509              		.section	.rodata.str1.4,"aMS",%progbits,1
 510              		.align	2
 511              	.LC0:
 512 0000 252E3266 		.ascii	"%.2f\000"
 512      00
 513 0005 000000   		.space	3
 514              	.LC1:
 515 0008 52656369 		.ascii	"Recieved Theta1\000"
 515      65766564 
 515      20546865 
 515      74613100 
 516              	.LC2:
 517 0018 57616974 		.ascii	"Waiting\000"
 517      696E6700 
 518              	.LC3:
 519 0020 52656369 		.ascii	"Recieved Theta2\000"
 519      65766564 
 519      20546865 
 519      74613200 
 520              		.bss
 521              		.align	2
 522              		.set	.LANCHOR0,. + 0
 523              		.type	previous_compare, %object
 524              		.size	previous_compare, 4
 525              	previous_compare:
 526 0000 00000000 		.space	4
 527              		.type	flag, %object
 528              		.size	flag, 4
 529              	flag:
 530 0004 00000000 		.space	4
ARM GAS  C:\Users\harri\AppData\Local\Temp\cc9AGNpU.s 			page 13


 531              		.text
 532              	.Letext0:
 533              		.file 2 "c:\\program files (x86)\\cypress\\psoc creator\\4.4\\psoc creator\\import\\gnu\\arm\\5.4.
 534              		.file 3 "c:\\program files (x86)\\cypress\\psoc creator\\4.4\\psoc creator\\import\\gnu\\arm\\5.4.
 535              		.file 4 "Generated_Source\\PSoC5/cytypes.h"
 536              		.file 5 "Generated_Source\\PSoC5/core_cm3.h"
 537              		.file 6 "Generated_Source\\PSoC5/PWM.h"
 538              		.file 7 "Generated_Source\\PSoC5/CyLib.h"
 539              		.file 8 "Generated_Source\\PSoC5/UART_1.h"
 540              		.file 9 "Generated_Source\\PSoC5/LCD_Char_1.h"
 541              		.file 10 "c:\\program files (x86)\\cypress\\psoc creator\\4.4\\psoc creator\\import\\gnu\\arm\\5.4